; ModuleID = '30/2067.c'
source_filename = "30/2067.c"
target datalayout = "e-m:e-p270:32:32-p271:32:32-p272:64:64-i64:64-f80:128-n8:16:32:64-S128"
target triple = "x86_64-pc-linux-gnu"

@.str = private unnamed_addr constant [3 x i8] c"%d\00", align 1
@.str.1 = private unnamed_addr constant [4 x i8] c"%d\0A\00", align 1

; Function Attrs: noinline nounwind uwtable
define dso_local i32 @main() #0 {
  %1 = alloca i32, align 4
  %2 = alloca i32, align 4
  %3 = alloca i32, align 4
  store i32 0, i32* %1, align 4
  store i32 0, i32* %3, align 4
  %4 = call i32 (i8*, ...) @__isoc99_scanf(i8* getelementptr inbounds ([3 x i8], [3 x i8]* @.str, i64 0, i64 0), i32* %2)
  br label %5

5:                                                ; preds = %30, %0
  %6 = load i32, i32* %2, align 4
  %7 = icmp sgt i32 %6, 0
  br i1 %7, label %8, label %33

8:                                                ; preds = %5
  %9 = load i32, i32* %2, align 4
  %10 = srem i32 %9, 7
  %11 = icmp ne i32 %10, 0
  br i1 %11, label %12, label %30

12:                                               ; preds = %8
  %13 = load i32, i32* %2, align 4
  %14 = srem i32 %13, 10
  %15 = icmp ne i32 %14, 7
  br i1 %15, label %16, label %30

16:                                               ; preds = %12
  %17 = load i32, i32* %2, align 4
  %18 = icmp sgt i32 %17, 79
  br i1 %18, label %22, label %19

19:                                               ; preds = %16
  %20 = load i32, i32* %2, align 4
  %21 = icmp slt i32 %20, 70
  br i1 %21, label %22, label %30

22:                                               ; preds = %19, %16
  %23 = load i32, i32* %2, align 4
  %24 = sitofp i32 %23 to double
  %25 = call double @pow(double %24, double 2.000000e+00) #3
  %26 = load i32, i32* %3, align 4
  %27 = sitofp i32 %26 to double
  %28 = fadd double %27, %25
  %29 = fptosi double %28 to i32
  store i32 %29, i32* %3, align 4
  br label %30

30:                                               ; preds = %22, %19, %12, %8
  %31 = load i32, i32* %2, align 4
  %32 = add nsw i32 %31, -1
  store i32 %32, i32* %2, align 4
  br label %5

33:                                               ; preds = %5
  %34 = load i32, i32* %3, align 4
  %35 = call i32 (i8*, ...) @printf(i8* getelementptr inbounds ([4 x i8], [4 x i8]* @.str.1, i64 0, i64 0), i32 %34)
  ret i32 0
}

declare dso_local i32 @__isoc99_scanf(i8*, ...) #1

; Function Attrs: nounwind
declare dso_local double @pow(double, double) #2

declare dso_local i32 @printf(i8*, ...) #1


!llvm.module.flags = !{!0}
!llvm.ident = !{!1}

!0 = !{i32 1, !"wchar_size", i32 4}
!1 = !{!"clang version 10.0.0-4ubuntu1 "}
