; ModuleID = 'source-C-CXX/29/2067.c'
source_filename = "source-C-CXX/29/2067.c"
target datalayout = "e-m:e-p270:32:32-p271:32:32-p272:64:64-i64:64-f80:128-n8:16:32:64-S128"
target triple = "x86_64-pc-linux-gnu"

@.str = private unnamed_addr constant [3 x i8] c"%d\00", align 1
@.str.1 = private unnamed_addr constant [4 x i8] c"%d\0A\00", align 1

; Function Attrs: nofree nounwind sspstrong uwtable
define dso_local i32 @main() local_unnamed_addr #0 {
  %1 = alloca i32, align 4
  %2 = bitcast i32* %1 to i8*
  call void @llvm.lifetime.start.p0i8(i64 4, i8* nonnull %2) #3
  %3 = call i32 (i8*, ...) @__isoc99_scanf(i8* getelementptr inbounds ([3 x i8], [3 x i8]* @.str, i64 0, i64 0), i32* nonnull %1)
  %4 = load i32, i32* %1, align 4, !tbaa !5
  %5 = icmp sgt i32 %4, 0
  br i1 %5, label %6, label %28

6:                                                ; preds = %0, %23
  %7 = phi i32 [ %24, %23 ], [ 0, %0 ]
  %8 = phi i32 [ %25, %23 ], [ %4, %0 ]
  %9 = urem i32 %8, 7
  %10 = icmp ne i32 %9, 0
  %11 = urem i32 %8, 10
  %12 = icmp ne i32 %11, 7
  %13 = and i1 %10, %12
  %14 = add nsw i32 %8, -70
  %15 = icmp ugt i32 %14, 9
  %16 = select i1 %13, i1 %15, i1 false
  br i1 %16, label %17, label %23

17:                                               ; preds = %6
  %18 = sitofp i32 %8 to double
  %19 = fmul double %18, %18
  %20 = sitofp i32 %7 to double
  %21 = fadd double %19, %20
  %22 = fptosi double %21 to i32
  br label %23

23:                                               ; preds = %17, %6
  %24 = phi i32 [ %22, %17 ], [ %7, %6 ]
  %25 = add nsw i32 %8, -1
  %26 = icmp sgt i32 %8, 1
  br i1 %26, label %6, label %27, !llvm.loop !9

27:                                               ; preds = %23
  store i32 0, i32* %1, align 4, !tbaa !5
  br label %28

28:                                               ; preds = %27, %0
  %29 = phi i32 [ %24, %27 ], [ 0, %0 ]
  %30 = call i32 (i8*, ...) @printf(i8* nonnull dereferenceable(1) getelementptr inbounds ([4 x i8], [4 x i8]* @.str.1, i64 0, i64 0), i32 %29)
  call void @llvm.lifetime.end.p0i8(i64 4, i8* nonnull %2) #3
  ret i32 0
}

; Function Attrs: argmemonly mustprogress nofree nosync nounwind willreturn
declare void @llvm.lifetime.start.p0i8(i64 immarg, i8* nocapture) #1

; Function Attrs: nofree nounwind
declare noundef i32 @__isoc99_scanf(i8* nocapture noundef readonly, ...) local_unnamed_addr #2

; Function Attrs: nofree nounwind
declare noundef i32 @printf(i8* nocapture noundef readonly, ...) local_unnamed_addr #2

; Function Attrs: argmemonly mustprogress nofree nosync nounwind willreturn
declare void @llvm.lifetime.end.p0i8(i64 immarg, i8* nocapture) #1


!llvm.module.flags = !{!0, !1, !2, !3}
!llvm.ident = !{!4}

!0 = !{i32 1, !"wchar_size", i32 4}
!1 = !{i32 7, !"PIC Level", i32 2}
!2 = !{i32 7, !"PIE Level", i32 2}
!3 = !{i32 7, !"uwtable", i32 1}
!4 = !{!"clang version 13.0.0"}
!5 = !{!6, !6, i64 0}
!6 = !{!"int", !7, i64 0}
!7 = !{!"omnipotent char", !8, i64 0}
!8 = !{!"Simple C/C++ TBAA"}
!9 = distinct !{!9, !10}
!10 = !{!"llvm.loop.mustprogress"}
